; Function Attrs: mustprogress uwtable
define dso_local noundef zeroext i1 @_ZNK4Edge14GetBindingBoolERKNSt7__cxx1112basic_stringIcSt11char_traitsIcESaIcEEE(ptr noundef nonnull align 8 dereferenceable(168) %0, ptr noundef nonnull align 8 dereferenceable(32) %1) local_unnamed_addr #0 align 2 personality ptr @__gxx_personality_v0 {
  %3 = alloca %struct.EdgeEnv, align 8
  %4 = alloca %"class.std::__cxx11::basic_string", align 8
  call void @llvm.lifetime.start.p0(i64 32, ptr nonnull %4) #27
  call void @llvm.lifetime.start.p0(i64 48, ptr nonnull %3) #27, !noalias !138
  store ptr getelementptr inbounds nuw inrange(-16, 24) (i8, ptr @_ZTV7EdgeEnv, i64 16), ptr %3, align 8, !tbaa !4, !noalias !138
  %5 = getelementptr inbounds nuw i8, ptr %3, i64 8
  call void @llvm.memset.p0.i64(ptr noundef nonnull align 8 dereferenceable(24) %5, i8 0, i64 24, i1 false), !noalias !138
  %6 = getelementptr inbounds nuw i8, ptr %3, i64 32
  store ptr %0, ptr %6, align 8, !tbaa !112, !noalias !138
  %7 = getelementptr inbounds nuw i8, ptr %3, i64 40
  store i32 0, ptr %7, align 8, !tbaa !121, !noalias !138
  %8 = getelementptr inbounds nuw i8, ptr %3, i64 44
  store i8 0, ptr %8, align 4, !tbaa !122, !noalias !138
  invoke void @_ZN7EdgeEnv14LookupVariableERKNSt7__cxx1112basic_stringIcSt11char_traitsIcESaIcEEE(ptr dead_on_unwind nonnull writable sret(%"class.std::__cxx11::basic_string") align 8 %4, ptr noundef nonnull align 8 dereferenceable(45) %3, ptr noundef nonnull align 8 dereferenceable(32) %1)
          to label %9 unwind label %29

9:                                                ; preds = %2
  store ptr getelementptr inbounds nuw inrange(-16, 24) (i8, ptr @_ZTV7EdgeEnv, i64 16), ptr %3, align 8, !tbaa !4, !noalias !138
  %10 = load ptr, ptr %5, align 8, !tbaa !123, !noalias !138
  %11 = getelementptr inbounds nuw i8, ptr %3, i64 16
  %12 = load ptr, ptr %11, align 8, !tbaa !124, !noalias !138
  %.not4.i.i.i.i.i.i = icmp eq ptr %10, %12
  br i1 %.not4.i.i.i.i.i.i, label %_ZSt8_DestroyIPNSt7__cxx1112basic_stringIcSt11char_traitsIcESaIcEEES5_EvT_S7_RSaIT0_E.exit.i.i.i, label %.lr.ph.i.i.i.i.i.i

.lr.ph.i.i.i.i.i.i:                               ; preds = %9, %_ZSt8_DestroyINSt7__cxx1112basic_stringIcSt11char_traitsIcESaIcEEEEvPT_.exit.i.i.i.i.i.i
  %.05.i.i.i.i.i.i = phi ptr [ %21, %_ZSt8_DestroyINSt7__cxx1112basic_stringIcSt11char_traitsIcESaIcEEEEvPT_.exit.i.i.i.i.i.i ], [ %10, %9 ]
  %13 = load ptr, ptr %.05.i.i.i.i.i.i, align 8, !tbaa !78
  %14 = getelementptr inbounds nuw i8, ptr %.05.i.i.i.i.i.i, i64 16
  %15 = icmp eq ptr %13, %14
  br i1 %15, label %_ZNKSt7__cxx1112basic_stringIcSt11char_traitsIcESaIcEE11_M_is_localEv.exit.thread.i.i.i.i.i.i.i.i.i, label %_ZNKSt7__cxx1112basic_stringIcSt11char_traitsIcESaIcEE11_M_is_localEv.exit.i.i.i.i.i.i.i.i.i

_ZNKSt7__cxx1112basic_stringIcSt11char_traitsIcESaIcEE11_M_is_localEv.exit.thread.i.i.i.i.i.i.i.i.i: ; preds = %.lr.ph.i.i.i.i.i.i
  %16 = getelementptr inbounds nuw i8, ptr %.05.i.i.i.i.i.i, i64 8
  %17 = load i64, ptr %16, align 8, !tbaa !97
  %18 = icmp ult i64 %17, 16
  call void @llvm.assume(i1 %18)
  br label %_ZSt8_DestroyINSt7__cxx1112basic_stringIcSt11char_traitsIcESaIcEEEEvPT_.exit.i.i.i.i.i.i

_ZNKSt7__cxx1112basic_stringIcSt11char_traitsIcESaIcEE11_M_is_localEv.exit.i.i.i.i.i.i.i.i.i: ; preds = %.lr.ph.i.i.i.i.i.i
  %19 = load i64, ptr %14, align 8, !tbaa !101
  %20 = add i64 %19, 1
  call void @_ZdlPvm(ptr noundef %13, i64 noundef %20) #28
  br label %_ZSt8_DestroyINSt7__cxx1112basic_stringIcSt11char_traitsIcESaIcEEEEvPT_.exit.i.i.i.i.i.i

_ZSt8_DestroyINSt7__cxx1112basic_stringIcSt11char_traitsIcESaIcEEEEvPT_.exit.i.i.i.i.i.i: ; preds = %_ZNKSt7__cxx1112basic_stringIcSt11char_traitsIcESaIcEE11_M_is_localEv.exit.i.i.i.i.i.i.i.i.i, %_ZNKSt7__cxx1112basic_stringIcSt11char_traitsIcESaIcEE11_M_is_localEv.exit.thread.i.i.i.i.i.i.i.i.i
  %21 = getelementptr inbounds nuw i8, ptr %.05.i.i.i.i.i.i, i64 32
  %.not.i.i.i.i.i.i = icmp eq ptr %21, %12
  br i1 %.not.i.i.i.i.i.i, label %_ZSt8_DestroyIPNSt7__cxx1112basic_stringIcSt11char_traitsIcESaIcEEES5_EvT_S7_RSaIT0_E.exitthread-pre-split.i.i.i, label %.lr.ph.i.i.i.i.i.i, !llvm.loop !125

_ZSt8_DestroyIPNSt7__cxx1112basic_stringIcSt11char_traitsIcESaIcEEES5_EvT_S7_RSaIT0_E.exitthread-pre-split.i.i.i: ; preds = %_ZSt8_DestroyINSt7__cxx1112basic_stringIcSt11char_traitsIcESaIcEEEEvPT_.exit.i.i.i.i.i.i
  %.pr.i.i.i = load ptr, ptr %5, align 8, !tbaa !123, !noalias !138
  br label %_ZSt8_DestroyIPNSt7__cxx1112basic_stringIcSt11char_traitsIcESaIcEEES5_EvT_S7_RSaIT0_E.exit.i.i.i

_ZSt8_DestroyIPNSt7__cxx1112basic_stringIcSt11char_traitsIcESaIcEEES5_EvT_S7_RSaIT0_E.exit.i.i.i: ; preds = %_ZSt8_DestroyIPNSt7__cxx1112basic_stringIcSt11char_traitsIcESaIcEEES5_EvT_S7_RSaIT0_E.exitthread-pre-split.i.i.i, %9
  %22 = phi ptr [ %.pr.i.i.i, %_ZSt8_DestroyIPNSt7__cxx1112basic_stringIcSt11char_traitsIcESaIcEEES5_EvT_S7_RSaIT0_E.exitthread-pre-split.i.i.i ], [ %10, %9 ]
  %.not.i.i.i.i.i = icmp eq ptr %22, null
  br i1 %.not.i.i.i.i.i, label %_ZNK4Edge10GetBindingERKNSt7__cxx1112basic_stringIcSt11char_traitsIcESaIcEEE.exit, label %23

23:                                               ; preds = %_ZSt8_DestroyIPNSt7__cxx1112basic_stringIcSt11char_traitsIcESaIcEEES5_EvT_S7_RSaIT0_E.exit.i.i.i
  %24 = getelementptr inbounds nuw i8, ptr %3, i64 24
  %25 = load ptr, ptr %24, align 8, !tbaa !126, !noalias !138
  %26 = ptrtoint ptr %25 to i64
  %27 = ptrtoint ptr %22 to i64
  %28 = sub i64 %26, %27
  call void @_ZdlPvm(ptr noundef nonnull %22, i64 noundef %28) #28
  br label %_ZNK4Edge10GetBindingERKNSt7__cxx1112basic_stringIcSt11char_traitsIcESaIcEEE.exit

29:                                               ; preds = %2
  %30 = landingpad { ptr, i32 }
          cleanup
  call void @_ZN7EdgeEnvD2Ev(ptr noundef nonnull align 8 dereferenceable(45) %3) #27
  call void @llvm.lifetime.end.p0(i64 48, ptr nonnull %3) #27, !noalias !138
  resume { ptr, i32 } %30

_ZNK4Edge10GetBindingERKNSt7__cxx1112basic_stringIcSt11char_traitsIcESaIcEEE.exit: ; preds = %_ZSt8_DestroyIPNSt7__cxx1112basic_stringIcSt11char_traitsIcESaIcEEES5_EvT_S7_RSaIT0_E.exit.i.i.i, %23
  call void @llvm.lifetime.end.p0(i64 48, ptr nonnull %3) #27, !noalias !138
  %31 = getelementptr inbounds nuw i8, ptr %4, i64 8
  %32 = load i64, ptr %31, align 8, !tbaa !97
  %33 = load ptr, ptr %4, align 8, !tbaa !78
  %34 = getelementptr inbounds nuw i8, ptr %4, i64 16
  %35 = icmp eq ptr %33, %34
  br i1 %35, label %_ZNKSt7__cxx1112basic_stringIcSt11char_traitsIcESaIcEE11_M_is_localEv.exit.thread.i.i, label %_ZNKSt7__cxx1112basic_stringIcSt11char_traitsIcESaIcEE11_M_is_localEv.exit.i.i

_ZNKSt7__cxx1112basic_stringIcSt11char_traitsIcESaIcEE11_M_is_localEv.exit.thread.i.i: ; preds = %_ZNK4Edge10GetBindingERKNSt7__cxx1112basic_stringIcSt11char_traitsIcESaIcEEE.exit
  %36 = icmp ult i64 %32, 16
  call void @llvm.assume(i1 %36)
  br label %_ZNSt7__cxx1112basic_stringIcSt11char_traitsIcESaIcEED2Ev.exit

_ZNKSt7__cxx1112basic_stringIcSt11char_traitsIcESaIcEE11_M_is_localEv.exit.i.i: ; preds = %_ZNK4Edge10GetBindingERKNSt7__cxx1112basic_stringIcSt11char_traitsIcESaIcEEE.exit
  %37 = load i64, ptr %34, align 8, !tbaa !101
  %38 = add i64 %37, 1
  call void @_ZdlPvm(ptr noundef %33, i64 noundef %38) #28
  br label %_ZNSt7__cxx1112basic_stringIcSt11char_traitsIcESaIcEED2Ev.exit

_ZNSt7__cxx1112basic_stringIcSt11char_traitsIcESaIcEED2Ev.exit: ; preds = %_ZNKSt7__cxx1112basic_stringIcSt11char_traitsIcESaIcEE11_M_is_localEv.exit.thread.i.i, %_ZNKSt7__cxx1112basic_stringIcSt11char_traitsIcESaIcEE11_M_is_localEv.exit.i.i
  %39 = icmp ne i64 %32, 0
  call void @llvm.lifetime.end.p0(i64 32, ptr nonnull %4) #27
  ret i1 %39
}